target datalayout = "e-m:e-p270:32:32-p271:32:32-p272:64:64-i64:64-i128:128-f80:128-n8:16:32:64-S128"
target triple = "x86_64-pc-linux-gnu"

%struct._zval_struct = type { %union._zend_value, %union.anon, %union.anon.2 }
%union._zend_value = type { i64 }
%union.anon = type { i32 }
%union.anon.2 = type { i32 }
%struct._zend_array = type { %struct._zend_refcounted_h, %union.anon.4, i32, %union.anon.6, i32, i32, i32, i32, i64, ptr }
%struct._zend_refcounted_h = type { i32, %union.anon.3 }
%union.anon.3 = type { i32 }
%union.anon.4 = type { i32 }
%union.anon.6 = type { ptr }
%struct._zend_object = type { %struct._zend_refcounted_h, i32, ptr, ptr, ptr, [1 x %struct._zval_struct] }
%struct._zend_class_entry = type { i8, ptr, %union.anon.8, i32, i32, i32, i32, ptr, ptr, ptr, %struct._zend_array, %struct._zend_array, %struct._zend_array, ptr, ptr, ptr, ptr, ptr, ptr, ptr, ptr, ptr, ptr, ptr, ptr, ptr, ptr, ptr, ptr, ptr, ptr, ptr, %union.anon.9, ptr, ptr, ptr, ptr, i32, i32, %union.anon.10, ptr, ptr, ptr, ptr, i32, ptr, ptr, %union.anon.11 }
%union.anon.8 = type { ptr }
%union.anon.9 = type { ptr }
%union.anon.10 = type { ptr }
%union.anon.11 = type { %struct.anon.12 }
%struct.anon.12 = type { ptr, i32, i32 }
%struct._zend_class_arrayaccess_funcs = type { ptr, ptr, ptr, ptr }
%struct.anon.7 = type { i8, [3 x i8], i32, ptr, ptr, ptr, i32, i32, ptr, ptr, ptr, ptr, i32 }

@spl_ce_SplFixedArray = global ptr null, align 8

; Function Attrs: nounwind uwtable
define internal ptr @spl_fixed_array_from_obj(ptr noundef %0) #0 {
  %2 = alloca ptr, align 8
  store ptr %0, ptr %2, align 8
  %3 = load ptr, ptr %2, align 8
  %4 = getelementptr inbounds i8, ptr %3, i64 -32
  ret ptr %4
}

; Function Attrs: nounwind uwtable
define internal void @spl_fixedarray_object_write_dimension(ptr noundef %0, ptr noundef %1, ptr noundef %2) #0 {
  %4 = alloca ptr, align 8
  %5 = alloca ptr, align 8
  %6 = alloca ptr, align 8
  %7 = alloca %struct._zval_struct, align 8
  %8 = alloca ptr, align 8
  store ptr %0, ptr %4, align 8
  store ptr %1, ptr %5, align 8
  store ptr %2, ptr %6, align 8
  %9 = load ptr, ptr %4, align 8
  %10 = getelementptr inbounds %struct._zend_object, ptr %9, i32 0, i32 2
  %11 = load ptr, ptr %10, align 8
  %12 = load ptr, ptr @spl_ce_SplFixedArray, align 8
  %13 = icmp ne ptr %11, %12
  br i1 %13, label %14, label %26

14:                                               ; preds = %3
  %15 = load ptr, ptr %4, align 8
  %16 = getelementptr inbounds %struct._zend_object, ptr %15, i32 0, i32 2
  %17 = load ptr, ptr %16, align 8
  %18 = getelementptr inbounds %struct._zend_class_entry, ptr %17, i32 0, i32 31
  %19 = load ptr, ptr %18, align 8
  %20 = getelementptr inbounds %struct._zend_class_arrayaccess_funcs, ptr %19, i32 0, i32 2
  %21 = load ptr, ptr %20, align 8
  %22 = getelementptr inbounds %struct.anon.7, ptr %21, i32 0, i32 4
  %23 = load ptr, ptr %22, align 8
  %24 = load ptr, ptr @spl_ce_SplFixedArray, align 8
  %25 = icmp ne ptr %23, %24
  br label %26

26:                                               ; preds = %14, %3
  %27 = phi i1 [ false, %3 ], [ %25, %14 ]
  %28 = xor i1 %27, true
  %29 = xor i1 %28, true
  %30 = zext i1 %29 to i32
  %31 = sext i32 %30 to i64
  %32 = icmp ne i64 %31, 0
  br i1 %32, label %33, label %51

33:                                               ; preds = %26
  %34 = load ptr, ptr %5, align 8
  %35 = icmp ne ptr %34, null
  br i1 %35, label %40, label %36

36:                                               ; preds = %33
  br label %37

37:                                               ; preds = %36
  %38 = getelementptr inbounds %struct._zval_struct, ptr %7, i32 0, i32 1
  store i32 1, ptr %38, align 8
  br label %39

39:                                               ; preds = %37
  store ptr %7, ptr %5, align 8
  br label %40

40:                                               ; preds = %39, %33
  %41 = load ptr, ptr %4, align 8
  %42 = getelementptr inbounds %struct._zend_object, ptr %41, i32 0, i32 2
  %43 = load ptr, ptr %42, align 8
  %44 = getelementptr inbounds %struct._zend_class_entry, ptr %43, i32 0, i32 31
  %45 = load ptr, ptr %44, align 8
  %46 = getelementptr inbounds %struct._zend_class_arrayaccess_funcs, ptr %45, i32 0, i32 2
  %47 = load ptr, ptr %46, align 8
  %48 = load ptr, ptr %4, align 8
  %49 = load ptr, ptr %5, align 8
  %50 = load ptr, ptr %6, align 8
  call void @zend_call_known_instance_method_with_2_params(ptr noundef %47, ptr noundef %48, ptr noundef null, ptr noundef %49, ptr noundef %50)
  br label %57

51:                                               ; preds = %26
  %52 = load ptr, ptr %4, align 8
  %53 = call ptr @spl_fixed_array_from_obj(ptr noundef %52)
  store ptr %53, ptr %8, align 8
  %54 = load ptr, ptr %8, align 8
  %55 = load ptr, ptr %5, align 8
  %56 = load ptr, ptr %6, align 8
  call void @spl_fixedarray_object_write_dimension_helper(ptr noundef %54, ptr noundef %55, ptr noundef %56)
  br label %57

57:                                               ; preds = %51, %40
  ret void
}