; Function Attrs: nounwind uwtable
define internal void @spl_fixedarray_object_write_dimension(ptr noundef %0, ptr noundef %1, ptr noundef %2) #0 {
  %4 = alloca %struct._zval_struct, align 8
  %5 = getelementptr inbounds i8, ptr %0, i64 16
  %6 = load ptr, ptr %5, align 8
  %7 = load ptr, ptr @spl_ce_SplFixedArray, align 8
  %.not = icmp eq ptr %6, %7
  br i1 %.not, label %.critedge, label %8

8:                                                ; preds = %3
  %9 = getelementptr inbounds i8, ptr %6, i64 376
  %10 = load ptr, ptr %9, align 8
  %11 = getelementptr inbounds i8, ptr %10, i64 16
  %12 = load ptr, ptr %11, align 8
  %13 = getelementptr inbounds i8, ptr %12, i64 16
  %14 = load ptr, ptr %13, align 8
  %.not15 = icmp eq ptr %14, %7
  br i1 %.not15, label %.critedge, label %15

15:                                               ; preds = %8
  %.not14 = icmp eq ptr %1, null
  br i1 %.not14, label %16, label %18

16:                                               ; preds = %15
  %17 = getelementptr inbounds i8, ptr %4, i64 8
  store i32 1, ptr %17, align 8
  br label %18

18:                                               ; preds = %16, %15
  %.0 = phi ptr [ %1, %15 ], [ %4, %16 ]
  call void @zend_call_known_instance_method_with_2_params(ptr noundef nonnull %12, ptr noundef nonnull %0, ptr noundef null, ptr noundef nonnull %.0, ptr noundef %2) #12
  br label %20

.critedge:                                        ; preds = %3, %8
  %19 = getelementptr inbounds i8, ptr %0, i64 -32
  tail call fastcc void @spl_fixedarray_object_write_dimension_helper(ptr noundef nonnull %19, ptr noundef %1, ptr noundef %2)
  br label %20

20:                                               ; preds = %.critedge, %18
  ret void
}